target datalayout = "e-m:e-p270:32:32-p271:32:32-p272:64:64-i64:64-i128:128-f80:128-n8:16:32:64-S128"
target triple = "x86_64-unknown-linux-gnu"

%"class.EA::UnitTest::Test" = type { ptr, %"class.eastl::basic_string", ptr, i64, i64, ptr, i8, i64 }
%"class.eastl::basic_string" = type { %"class.eastl::compressed_pair" }
%"class.eastl::compressed_pair" = type { %"class.eastl::compressed_pair_imp" }
%"class.eastl::compressed_pair_imp" = type { %"struct.eastl::basic_string<char>::Layout" }
%"struct.eastl::basic_string<char>::Layout" = type { %union.anon }
%union.anon = type { %"struct.eastl::basic_string<char>::HeapLayout" }
%"struct.eastl::basic_string<char>::HeapLayout" = type { ptr, i64, i64 }
%"struct.EA::UnitTest::TestSuite::ResultInfo" = type { ptr, i32 }
%"struct.eastl::basic_string<char>::SSOLayout" = type { [23 x i8], %"struct.eastl::basic_string<char>::SSOLayout::SSOSize" }
%"struct.eastl::basic_string<char>::SSOLayout::SSOSize" = type { i8 }

@.str.3 = private unnamed_addr constant [128 x i8] c"generated/home/dtcxzyw/WorkSpace/Projects/compilers/llvm-opt-benchmark/bench/eastl/EASTL/test/packages/EATest/source/EATest.cpp\00", align 1
@.str.17 = private unnamed_addr constant [19 x i8] c"Running test [%s]\0A\00", align 1
@.str.18 = private unnamed_addr constant [28 x i8] c"Setup failure for test %s.\0A\00", align 1
@.str.19 = private unnamed_addr constant [36 x i8] c"Initialization failure in test %s.\0A\00", align 1
@.str.20 = private unnamed_addr constant [30 x i8] c"Shutdown failure in test %s.\0A\00", align 1
@.str.21 = private unnamed_addr constant [31 x i8] c"Teardown failure for test %s.\0A\00", align 1

; Function Attrs: mustprogress nounwind uwtable
define linkonce_odr dso_local noundef nonnull align 8 dereferenceable(24) ptr @_ZNK5eastl19compressed_pair_impINS_12basic_stringIcNS_9allocatorEE6LayoutES2_Li2EE5firstEv(ptr noundef nonnull align 8 dereferenceable(24) %this) #1 comdat align 2 {
entry:
  %this.addr = alloca ptr, align 8
  store ptr %this, ptr %this.addr, align 8
  %this1 = load ptr, ptr %this.addr, align 8
  %mFirst = getelementptr inbounds %"class.eastl::compressed_pair_imp", ptr %this1, i32 0, i32 0
  ret ptr %mFirst
}

; Function Attrs: mustprogress nounwind uwtable
define linkonce_odr dso_local noundef ptr @_ZNK5eastl12basic_stringIcNS_9allocatorEE6Layout11SSOBeginPtrEv(ptr noundef nonnull align 8 dereferenceable(24) %this) #1 comdat align 2 {
entry:
  %this.addr = alloca ptr, align 8
  store ptr %this, ptr %this.addr, align 8
  %this1 = load ptr, ptr %this.addr, align 8
  %0 = getelementptr inbounds %"struct.eastl::basic_string<char>::Layout", ptr %this1, i32 0, i32 0
  %mData = getelementptr inbounds %"struct.eastl::basic_string<char>::SSOLayout", ptr %0, i32 0, i32 0
  %arraydecay = getelementptr inbounds [23 x i8], ptr %mData, i64 0, i64 0
  ret ptr %arraydecay
}

; Function Attrs: mustprogress nounwind uwtable
define linkonce_odr dso_local noundef ptr @_ZNK5eastl12basic_stringIcNS_9allocatorEE6Layout12HeapBeginPtrEv(ptr noundef nonnull align 8 dereferenceable(24) %this) #1 comdat align 2 {
entry:
  %this.addr = alloca ptr, align 8
  store ptr %this, ptr %this.addr, align 8
  %this1 = load ptr, ptr %this.addr, align 8
  %0 = getelementptr inbounds %"struct.eastl::basic_string<char>::Layout", ptr %this1, i32 0, i32 0
  %mpBegin = getelementptr inbounds %"struct.eastl::basic_string<char>::HeapLayout", ptr %0, i32 0, i32 0
  %1 = load ptr, ptr %mpBegin, align 8
  ret ptr %1
}

; Function Attrs: mustprogress nounwind uwtable
define linkonce_odr dso_local noundef zeroext i1 @_ZNK5eastl12basic_stringIcNS_9allocatorEE6Layout6IsHeapEv(ptr noundef nonnull align 8 dereferenceable(24) %this) #1 comdat align 2 {
entry:
  %this.addr = alloca ptr, align 8
  store ptr %this, ptr %this.addr, align 8
  %this1 = load ptr, ptr %this.addr, align 8
  %0 = getelementptr inbounds %"struct.eastl::basic_string<char>::Layout", ptr %this1, i32 0, i32 0
  %mRemainingSizeField = getelementptr inbounds %"struct.eastl::basic_string<char>::SSOLayout", ptr %0, i32 0, i32 1
  %mnRemainingSize = getelementptr inbounds %"struct.eastl::basic_string<char>::SSOLayout::SSOSize", ptr %mRemainingSizeField, i32 0, i32 0
  %1 = load i8, ptr %mnRemainingSize, align 1
  %conv = sext i8 %1 to i64
  %and = and i64 %conv, 128
  %tobool = icmp ne i64 %and, 0
  %lnot = xor i1 %tobool, true
  %lnot2 = xor i1 %lnot, true
  ret i1 %lnot2
}

; Function Attrs: noreturn nounwind uwtable
define linkonce_odr hidden void @__clang_call_terminate(ptr noundef %0) #10 comdat {
  %2 = call ptr @__cxa_begin_catch(ptr %0) #13
  call void @_ZSt9terminatev() #17
  unreachable
}

; Function Attrs: mustprogress uwtable
define linkonce_odr dso_local noundef nonnull align 8 dereferenceable(24) ptr @_ZNK5eastl15compressed_pairINS_12basic_stringIcNS_9allocatorEE6LayoutES2_E5firstEv(ptr noundef nonnull align 8 dereferenceable(24) %this) #2 comdat align 2 {
entry:
  %this.addr = alloca ptr, align 8
  store ptr %this, ptr %this.addr, align 8
  %this1 = load ptr, ptr %this.addr, align 8
  %call = call noundef nonnull align 8 dereferenceable(24) ptr @_ZNK5eastl19compressed_pair_impINS_12basic_stringIcNS_9allocatorEE6LayoutES2_Li2EE5firstEv(ptr noundef nonnull align 8 dereferenceable(24) %this1)
  ret ptr %call
}

; Function Attrs: mustprogress nounwind uwtable
define linkonce_odr dso_local noundef ptr @_ZNK5eastl12basic_stringIcNS_9allocatorEE6Layout8BeginPtrEv(ptr noundef nonnull align 8 dereferenceable(24) %this) #1 comdat align 2 {
entry:
  %this.addr = alloca ptr, align 8
  store ptr %this, ptr %this.addr, align 8
  %this1 = load ptr, ptr %this.addr, align 8
  %call = call noundef zeroext i1 @_ZNK5eastl12basic_stringIcNS_9allocatorEE6Layout6IsHeapEv(ptr noundef nonnull align 8 dereferenceable(24) %this1) #13
  br i1 %call, label %cond.true, label %cond.false

cond.true:                                        ; preds = %entry
  %call2 = call noundef ptr @_ZNK5eastl12basic_stringIcNS_9allocatorEE6Layout12HeapBeginPtrEv(ptr noundef nonnull align 8 dereferenceable(24) %this1) #13
  br label %cond.end

cond.false:                                       ; preds = %entry
  %call3 = call noundef ptr @_ZNK5eastl12basic_stringIcNS_9allocatorEE6Layout11SSOBeginPtrEv(ptr noundef nonnull align 8 dereferenceable(24) %this1) #13
  br label %cond.end

cond.end:                                         ; preds = %cond.false, %cond.true
  %cond = phi ptr [ %call2, %cond.true ], [ %call3, %cond.false ]
  ret ptr %cond
}

; Function Attrs: mustprogress nounwind uwtable
define linkonce_odr dso_local noundef nonnull align 8 dereferenceable(24) ptr @_ZNK5eastl12basic_stringIcNS_9allocatorEE14internalLayoutEv(ptr noundef nonnull align 8 dereferenceable(24) %this) #1 comdat align 2 personality ptr @__gxx_personality_v0 {
entry:
  %this.addr = alloca ptr, align 8
  store ptr %this, ptr %this.addr, align 8
  %this1 = load ptr, ptr %this.addr, align 8
  %mPair = getelementptr inbounds %"class.eastl::basic_string", ptr %this1, i32 0, i32 0
  %call = invoke noundef nonnull align 8 dereferenceable(24) ptr @_ZNK5eastl15compressed_pairINS_12basic_stringIcNS_9allocatorEE6LayoutES2_E5firstEv(ptr noundef nonnull align 8 dereferenceable(24) %mPair)
          to label %invoke.cont unwind label %terminate.lpad

invoke.cont:                                      ; preds = %entry
  ret ptr %call

terminate.lpad:                                   ; preds = %entry
  %0 = landingpad { ptr, i32 }
          catch ptr null
  %1 = extractvalue { ptr, i32 } %0, 0
  call void @__clang_call_terminate(ptr %1) #17
  unreachable
}

; Function Attrs: mustprogress nounwind uwtable
define linkonce_odr dso_local noundef ptr @_ZNK5eastl12basic_stringIcNS_9allocatorEE5c_strEv(ptr noundef nonnull align 8 dereferenceable(24) %this) #1 comdat align 2 {
entry:
  %this.addr = alloca ptr, align 8
  store ptr %this, ptr %this.addr, align 8
  %this1 = load ptr, ptr %this.addr, align 8
  %call = call noundef nonnull align 8 dereferenceable(24) ptr @_ZNK5eastl12basic_stringIcNS_9allocatorEE14internalLayoutEv(ptr noundef nonnull align 8 dereferenceable(24) %this1) #13
  %call2 = call noundef ptr @_ZNK5eastl12basic_stringIcNS_9allocatorEE6Layout8BeginPtrEv(ptr noundef nonnull align 8 dereferenceable(24) %call) #13
  ret ptr %call2
}

; Function Attrs: mustprogress uwtable
define dso_local void @_ZN2EA8UnitTest9TestSuite3RunERNS1_10ResultInfoE(ptr noundef nonnull align 8 dereferenceable(144) %this, ptr noundef nonnull align 8 dereferenceable(16) %resultInfo) #2 align 2 {
entry:
  %this.addr = alloca ptr, align 8
  %resultInfo.addr = alloca ptr, align 8
  %nErrorCount = alloca i32, align 4
  store ptr %this, ptr %this.addr, align 8
  store ptr %resultInfo, ptr %resultInfo.addr, align 8
  %this1 = load ptr, ptr %this.addr, align 8
  store i32 0, ptr %nErrorCount, align 4
  %0 = load ptr, ptr %resultInfo.addr, align 8
  %mnResult = getelementptr inbounds %"struct.EA::UnitTest::TestSuite::ResultInfo", ptr %0, i32 0, i32 1
  %1 = load i32, ptr %mnResult, align 8
  %cmp = icmp eq i32 %1, -2147483647
  br i1 %cmp, label %if.then, label %if.end22

if.then:                                          ; preds = %entry
  %2 = load ptr, ptr %resultInfo.addr, align 8
  %mpTest = getelementptr inbounds %"struct.EA::UnitTest::TestSuite::ResultInfo", ptr %2, i32 0, i32 0
  %3 = load ptr, ptr %mpTest, align 8
  %msTestName = getelementptr inbounds %"class.EA::UnitTest::Test", ptr %3, i32 0, i32 1
  %call = call noundef ptr @_ZNK5eastl12basic_stringIcNS_9allocatorEE5c_strEv(ptr noundef nonnull align 8 dereferenceable(24) %msTestName) #13
  call void (i32, ptr, ...) @_ZN2EA6EAMain15ReportVerbosityEjPKcz(i32 noundef 0, ptr noundef @.str.17, ptr noundef %call)
  %vtable = load ptr, ptr %this1, align 8
  %vfn = getelementptr inbounds ptr, ptr %vtable, i64 16
  %4 = load ptr, ptr %vfn, align 8
  %call2 = call noundef i32 %4(ptr noundef nonnull align 8 dereferenceable(144) %this1)
  %cmp3 = icmp ne i32 %call2, 0
  br i1 %cmp3, label %if.then4, label %if.end

if.then4:                                         ; preds = %if.then
  %5 = load ptr, ptr %resultInfo.addr, align 8
  %mnResult5 = getelementptr inbounds %"struct.EA::UnitTest::TestSuite::ResultInfo", ptr %5, i32 0, i32 1
  store i32 1, ptr %mnResult5, align 8
  %6 = load ptr, ptr %resultInfo.addr, align 8
  %mpTest6 = getelementptr inbounds %"struct.EA::UnitTest::TestSuite::ResultInfo", ptr %6, i32 0, i32 0
  %7 = load ptr, ptr %mpTest6, align 8
  %msTestName7 = getelementptr inbounds %"class.EA::UnitTest::Test", ptr %7, i32 0, i32 1
  %call8 = call noundef ptr @_ZNK5eastl12basic_stringIcNS_9allocatorEE5c_strEv(ptr noundef nonnull align 8 dereferenceable(24) %msTestName7) #13
  %call9 = call noundef i32 (i1, ptr, ptr, i32, ptr, ...) @_ZN2EA8UnitTest12TestInternal19EATEST_VERIFY_F_IMPEbRiPKciS4_z(i1 noundef zeroext false, ptr noundef nonnull align 4 dereferenceable(4) %nErrorCount, ptr noundef @.str.3, i32 noundef 1128, ptr noundef @.str.18, ptr noundef %call8)
  br label %if.end

if.end:                                           ; preds = %if.then4, %if.then
  %8 = load ptr, ptr %resultInfo.addr, align 8
  %mpTest10 = getelementptr inbounds %"struct.EA::UnitTest::TestSuite::ResultInfo", ptr %8, i32 0, i32 0
  %9 = load ptr, ptr %mpTest10, align 8
  %vtable11 = load ptr, ptr %9, align 8
  %vfn12 = getelementptr inbounds ptr, ptr %vtable11, i64 2
  %10 = load ptr, ptr %vfn12, align 8
  %call13 = call noundef i32 %10(ptr noundef nonnull align 8 dereferenceable(80) %9)
  %cmp14 = icmp ne i32 %call13, 0
  br i1 %cmp14, label %if.then15, label %if.end21

if.then15:                                        ; preds = %if.end
  %11 = load ptr, ptr %resultInfo.addr, align 8
  %mnResult16 = getelementptr inbounds %"struct.EA::UnitTest::TestSuite::ResultInfo", ptr %11, i32 0, i32 1
  store i32 1, ptr %mnResult16, align 8
  %12 = load ptr, ptr %resultInfo.addr, align 8
  %mpTest17 = getelementptr inbounds %"struct.EA::UnitTest::TestSuite::ResultInfo", ptr %12, i32 0, i32 0
  %13 = load ptr, ptr %mpTest17, align 8
  %msTestName18 = getelementptr inbounds %"class.EA::UnitTest::Test", ptr %13, i32 0, i32 1
  %call19 = call noundef ptr @_ZNK5eastl12basic_stringIcNS_9allocatorEE5c_strEv(ptr noundef nonnull align 8 dereferenceable(24) %msTestName18) #13
  %call20 = call noundef i32 (i1, ptr, ptr, i32, ptr, ...) @_ZN2EA8UnitTest12TestInternal19EATEST_VERIFY_F_IMPEbRiPKciS4_z(i1 noundef zeroext false, ptr noundef nonnull align 4 dereferenceable(4) %nErrorCount, ptr noundef @.str.3, i32 noundef 1134, ptr noundef @.str.19, ptr noundef %call19)
  br label %if.end21

if.end21:                                         ; preds = %if.then15, %if.end
  br label %if.end22

if.end22:                                         ; preds = %if.end21, %entry
  %14 = load ptr, ptr %resultInfo.addr, align 8
  %mnResult23 = getelementptr inbounds %"struct.EA::UnitTest::TestSuite::ResultInfo", ptr %14, i32 0, i32 1
  %15 = load i32, ptr %mnResult23, align 8
  %cmp24 = icmp ne i32 %15, 1
  br i1 %cmp24, label %if.then25, label %if.end31

if.then25:                                        ; preds = %if.end22
  %16 = load ptr, ptr %resultInfo.addr, align 8
  %mpTest26 = getelementptr inbounds %"struct.EA::UnitTest::TestSuite::ResultInfo", ptr %16, i32 0, i32 0
  %17 = load ptr, ptr %mpTest26, align 8
  %vtable27 = load ptr, ptr %17, align 8
  %vfn28 = getelementptr inbounds ptr, ptr %vtable27, i64 8
  %18 = load ptr, ptr %vfn28, align 8
  %call29 = call noundef i32 %18(ptr noundef nonnull align 8 dereferenceable(80) %17)
  %19 = load ptr, ptr %resultInfo.addr, align 8
  %mnResult30 = getelementptr inbounds %"struct.EA::UnitTest::TestSuite::ResultInfo", ptr %19, i32 0, i32 1
  store i32 %call29, ptr %mnResult30, align 8
  br label %if.end31

if.end31:                                         ; preds = %if.then25, %if.end22
  %20 = load ptr, ptr %resultInfo.addr, align 8
  %mnResult32 = getelementptr inbounds %"struct.EA::UnitTest::TestSuite::ResultInfo", ptr %20, i32 0, i32 1
  %21 = load i32, ptr %mnResult32, align 8
  %cmp33 = icmp ne i32 %21, -2147483648
  br i1 %cmp33, label %if.then34, label %if.end58

if.then34:                                        ; preds = %if.end31
  %22 = load ptr, ptr %resultInfo.addr, align 8
  %mpTest35 = getelementptr inbounds %"struct.EA::UnitTest::TestSuite::ResultInfo", ptr %22, i32 0, i32 0
  %23 = load ptr, ptr %mpTest35, align 8
  %vtable36 = load ptr, ptr %23, align 8
  %vfn37 = getelementptr inbounds ptr, ptr %vtable36, i64 3
  %24 = load ptr, ptr %vfn37, align 8
  %call38 = call noundef i32 %24(ptr noundef nonnull align 8 dereferenceable(80) %23)
  %cmp39 = icmp ne i32 %call38, 0
  br i1 %cmp39, label %if.then40, label %if.end46

if.then40:                                        ; preds = %if.then34
  %25 = load ptr, ptr %resultInfo.addr, align 8
  %mnResult41 = getelementptr inbounds %"struct.EA::UnitTest::TestSuite::ResultInfo", ptr %25, i32 0, i32 1
  store i32 1, ptr %mnResult41, align 8
  %26 = load ptr, ptr %resultInfo.addr, align 8
  %mpTest42 = getelementptr inbounds %"struct.EA::UnitTest::TestSuite::ResultInfo", ptr %26, i32 0, i32 0
  %27 = load ptr, ptr %mpTest42, align 8
  %msTestName43 = getelementptr inbounds %"class.EA::UnitTest::Test", ptr %27, i32 0, i32 1
  %call44 = call noundef ptr @_ZNK5eastl12basic_stringIcNS_9allocatorEE5c_strEv(ptr noundef nonnull align 8 dereferenceable(24) %msTestName43) #13
  %call45 = call noundef i32 (i1, ptr, ptr, i32, ptr, ...) @_ZN2EA8UnitTest12TestInternal19EATEST_VERIFY_F_IMPEbRiPKciS4_z(i1 noundef zeroext false, ptr noundef nonnull align 4 dereferenceable(4) %nErrorCount, ptr noundef @.str.3, i32 noundef 1148, ptr noundef @.str.20, ptr noundef %call44)
  br label %if.end46

if.end46:                                         ; preds = %if.then40, %if.then34
  %vtable47 = load ptr, ptr %this1, align 8
  %vfn48 = getelementptr inbounds ptr, ptr %vtable47, i64 17
  %28 = load ptr, ptr %vfn48, align 8
  %call49 = call noundef i32 %28(ptr noundef nonnull align 8 dereferenceable(144) %this1)
  %cmp50 = icmp ne i32 %call49, 0
  br i1 %cmp50, label %if.then51, label %if.end57

if.then51:                                        ; preds = %if.end46
  %29 = load ptr, ptr %resultInfo.addr, align 8
  %mnResult52 = getelementptr inbounds %"struct.EA::UnitTest::TestSuite::ResultInfo", ptr %29, i32 0, i32 1
  store i32 1, ptr %mnResult52, align 8
  %30 = load ptr, ptr %resultInfo.addr, align 8
  %mpTest53 = getelementptr inbounds %"struct.EA::UnitTest::TestSuite::ResultInfo", ptr %30, i32 0, i32 0
  %31 = load ptr, ptr %mpTest53, align 8
  %msTestName54 = getelementptr inbounds %"class.EA::UnitTest::Test", ptr %31, i32 0, i32 1
  %call55 = call noundef ptr @_ZNK5eastl12basic_stringIcNS_9allocatorEE5c_strEv(ptr noundef nonnull align 8 dereferenceable(24) %msTestName54) #13
  %call56 = call noundef i32 (i1, ptr, ptr, i32, ptr, ...) @_ZN2EA8UnitTest12TestInternal19EATEST_VERIFY_F_IMPEbRiPKciS4_z(i1 noundef zeroext false, ptr noundef nonnull align 4 dereferenceable(4) %nErrorCount, ptr noundef @.str.3, i32 noundef 1154, ptr noundef @.str.21, ptr noundef %call55)
  br label %if.end57

if.end57:                                         ; preds = %if.then51, %if.end46
  br label %if.end58

if.end58:                                         ; preds = %if.end57, %if.end31
  %32 = load i32, ptr %nErrorCount, align 4
  %conv = sext i32 %32 to i64
  %33 = load ptr, ptr %resultInfo.addr, align 8
  %mpTest59 = getelementptr inbounds %"struct.EA::UnitTest::TestSuite::ResultInfo", ptr %33, i32 0, i32 0
  %34 = load ptr, ptr %mpTest59, align 8
  %mnErrorCount = getelementptr inbounds %"class.EA::UnitTest::Test", ptr %34, i32 0, i32 4
  %35 = load i64, ptr %mnErrorCount, align 8
  %add = add i64 %35, %conv
  store i64 %add, ptr %mnErrorCount, align 8
  ret void
}