; Function Attrs: mustprogress uwtable
define dso_local void @_ZN2EA8UnitTest9TestSuite3RunERNS1_10ResultInfoE(ptr noundef nonnull align 8 dereferenceable(144) %this, ptr nocapture noundef nonnull align 8 dereferenceable(16) %resultInfo) local_unnamed_addr #0 align 2 personality ptr @__gxx_personality_v0 {
entry:
  %nErrorCount = alloca i32, align 4
  store i32 0, ptr %nErrorCount, align 4
  %mnResult = getelementptr inbounds i8, ptr %resultInfo, i64 8
  %0 = load i32, ptr %mnResult, align 8
  %cmp = icmp eq i32 %0, -2147483647
  br i1 %cmp, label %if.then, label %if.end22

if.then:                                          ; preds = %entry
  %1 = load ptr, ptr %resultInfo, align 8
  %msTestName = getelementptr inbounds i8, ptr %1, i64 8
  %mRemainingSizeField.i.i.i = getelementptr inbounds i8, ptr %1, i64 31
  %2 = load i8, ptr %mRemainingSizeField.i.i.i, align 1
  %tobool.i.i.i = icmp slt i8 %2, 0
  %3 = load ptr, ptr %msTestName, align 8
  %spec.select.i.i = select i1 %tobool.i.i.i, ptr %3, ptr %msTestName
  tail call void (i32, ptr, ...) @_ZN2EA6EAMain15ReportVerbosityEjPKcz(i32 noundef 0, ptr noundef nonnull @.str.17, ptr noundef %spec.select.i.i)
  %vtable = load ptr, ptr %this, align 8
  %vfn = getelementptr inbounds i8, ptr %vtable, i64 128
  %4 = load ptr, ptr %vfn, align 8
  %call2 = tail call noundef i32 %4(ptr noundef nonnull align 8 dereferenceable(144) %this)
  %cmp3.not = icmp eq i32 %call2, 0
  br i1 %cmp3.not, label %if.end, label %if.then4

if.then4:                                         ; preds = %if.then
  store i32 1, ptr %mnResult, align 8
  %5 = load ptr, ptr %resultInfo, align 8
  %msTestName7 = getelementptr inbounds i8, ptr %5, i64 8
  %mRemainingSizeField.i.i.i17 = getelementptr inbounds i8, ptr %5, i64 31
  %6 = load i8, ptr %mRemainingSizeField.i.i.i17, align 1
  %tobool.i.i.i18 = icmp slt i8 %6, 0
  %7 = load ptr, ptr %msTestName7, align 8
  %spec.select.i.i19 = select i1 %tobool.i.i.i18, ptr %7, ptr %msTestName7
  %call9 = call noundef i32 (i1, ptr, ptr, i32, ptr, ...) @_ZN2EA8UnitTest12TestInternal19EATEST_VERIFY_F_IMPEbRiPKciS4_z(i1 noundef zeroext false, ptr noundef nonnull align 4 dereferenceable(4) %nErrorCount, ptr noundef nonnull @.str.3, i32 noundef 1128, ptr noundef nonnull @.str.18, ptr noundef %spec.select.i.i19), !range !17
  br label %if.end

if.end:                                           ; preds = %if.then4, %if.then
  %8 = load ptr, ptr %resultInfo, align 8
  %vtable11 = load ptr, ptr %8, align 8
  %vfn12 = getelementptr inbounds i8, ptr %vtable11, i64 16
  %9 = load ptr, ptr %vfn12, align 8
  %call13 = tail call noundef i32 %9(ptr noundef nonnull align 8 dereferenceable(80) %8)
  %cmp14.not = icmp eq i32 %call13, 0
  br i1 %cmp14.not, label %if.end22thread-pre-split, label %if.then15

if.then15:                                        ; preds = %if.end
  store i32 1, ptr %mnResult, align 8
  %10 = load ptr, ptr %resultInfo, align 8
  %msTestName18 = getelementptr inbounds i8, ptr %10, i64 8
  %mRemainingSizeField.i.i.i20 = getelementptr inbounds i8, ptr %10, i64 31
  %11 = load i8, ptr %mRemainingSizeField.i.i.i20, align 1
  %tobool.i.i.i21 = icmp slt i8 %11, 0
  %12 = load ptr, ptr %msTestName18, align 8
  %spec.select.i.i22 = select i1 %tobool.i.i.i21, ptr %12, ptr %msTestName18
  %call20 = call noundef i32 (i1, ptr, ptr, i32, ptr, ...) @_ZN2EA8UnitTest12TestInternal19EATEST_VERIFY_F_IMPEbRiPKciS4_z(i1 noundef zeroext false, ptr noundef nonnull align 4 dereferenceable(4) %nErrorCount, ptr noundef nonnull @.str.3, i32 noundef 1134, ptr noundef nonnull @.str.19, ptr noundef %spec.select.i.i22), !range !17
  br label %if.end22thread-pre-split

if.end22thread-pre-split:                         ; preds = %if.then15, %if.end
  %.pr = load i32, ptr %mnResult, align 8
  br label %if.end22

if.end22:                                         ; preds = %if.end22thread-pre-split, %entry
  %.pr29 = phi i32 [ %.pr, %if.end22thread-pre-split ], [ %0, %entry ]
  %cmp24.not = icmp eq i32 %.pr29, 1
  br i1 %cmp24.not, label %if.then34, label %if.end31

if.end31:                                         ; preds = %if.end22
  %13 = load ptr, ptr %resultInfo, align 8
  %vtable27 = load ptr, ptr %13, align 8
  %vfn28 = getelementptr inbounds i8, ptr %vtable27, i64 64
  %14 = load ptr, ptr %vfn28, align 8
  %call29 = tail call noundef i32 %14(ptr noundef nonnull align 8 dereferenceable(80) %13)
  store i32 %call29, ptr %mnResult, align 8
  %15 = icmp eq i32 %call29, -2147483648
  br i1 %15, label %if.end58, label %if.then34

if.then34:                                        ; preds = %if.end22, %if.end31
  %16 = load ptr, ptr %resultInfo, align 8
  %vtable36 = load ptr, ptr %16, align 8
  %vfn37 = getelementptr inbounds i8, ptr %vtable36, i64 24
  %17 = load ptr, ptr %vfn37, align 8
  %call38 = tail call noundef i32 %17(ptr noundef nonnull align 8 dereferenceable(80) %16)
  %cmp39.not = icmp eq i32 %call38, 0
  br i1 %cmp39.not, label %if.end46, label %if.then40

if.then40:                                        ; preds = %if.then34
  store i32 1, ptr %mnResult, align 8
  %18 = load ptr, ptr %resultInfo, align 8
  %msTestName43 = getelementptr inbounds i8, ptr %18, i64 8
  %mRemainingSizeField.i.i.i23 = getelementptr inbounds i8, ptr %18, i64 31
  %19 = load i8, ptr %mRemainingSizeField.i.i.i23, align 1
  %tobool.i.i.i24 = icmp slt i8 %19, 0
  %20 = load ptr, ptr %msTestName43, align 8
  %spec.select.i.i25 = select i1 %tobool.i.i.i24, ptr %20, ptr %msTestName43
  %call45 = call noundef i32 (i1, ptr, ptr, i32, ptr, ...) @_ZN2EA8UnitTest12TestInternal19EATEST_VERIFY_F_IMPEbRiPKciS4_z(i1 noundef zeroext false, ptr noundef nonnull align 4 dereferenceable(4) %nErrorCount, ptr noundef nonnull @.str.3, i32 noundef 1148, ptr noundef nonnull @.str.20, ptr noundef %spec.select.i.i25), !range !17
  br label %if.end46

if.end46:                                         ; preds = %if.then40, %if.then34
  %vtable47 = load ptr, ptr %this, align 8
  %vfn48 = getelementptr inbounds i8, ptr %vtable47, i64 136
  %21 = load ptr, ptr %vfn48, align 8
  %call49 = tail call noundef i32 %21(ptr noundef nonnull align 8 dereferenceable(144) %this)
  %cmp50.not = icmp eq i32 %call49, 0
  br i1 %cmp50.not, label %if.end58, label %if.then51

if.then51:                                        ; preds = %if.end46
  store i32 1, ptr %mnResult, align 8
  %22 = load ptr, ptr %resultInfo, align 8
  %msTestName54 = getelementptr inbounds i8, ptr %22, i64 8
  %mRemainingSizeField.i.i.i26 = getelementptr inbounds i8, ptr %22, i64 31
  %23 = load i8, ptr %mRemainingSizeField.i.i.i26, align 1
  %tobool.i.i.i27 = icmp slt i8 %23, 0
  %24 = load ptr, ptr %msTestName54, align 8
  %spec.select.i.i28 = select i1 %tobool.i.i.i27, ptr %24, ptr %msTestName54
  %call56 = call noundef i32 (i1, ptr, ptr, i32, ptr, ...) @_ZN2EA8UnitTest12TestInternal19EATEST_VERIFY_F_IMPEbRiPKciS4_z(i1 noundef zeroext false, ptr noundef nonnull align 4 dereferenceable(4) %nErrorCount, ptr noundef nonnull @.str.3, i32 noundef 1154, ptr noundef nonnull @.str.21, ptr noundef %spec.select.i.i28), !range !17
  br label %if.end58

if.end58:                                         ; preds = %if.end46, %if.then51, %if.end31
  %25 = load i32, ptr %nErrorCount, align 4
  %conv = sext i32 %25 to i64
  %26 = load ptr, ptr %resultInfo, align 8
  %mnErrorCount = getelementptr inbounds i8, ptr %26, i64 48
  %27 = load i64, ptr %mnErrorCount, align 8
  %add = add i64 %27, %conv
  store i64 %add, ptr %mnErrorCount, align 8
  ret void
}